target datalayout = "e-m:e-p270:32:32-p271:32:32-p272:64:64-i64:64-i128:128-f80:128-n8:16:32:64-S128"
target triple = "x86_64-pc-linux-gnu"

; Function Attrs: null_pointer_is_valid sspstrong uwtable
define internal zeroext i16 @be_msisdn(ptr noundef %0, ptr noundef %1, ptr noundef %2, i32 noundef %3, i32 noundef %4, ptr noundef %5, i32 noundef %6) #1 {
  %8 = alloca ptr, align 8
  %9 = alloca ptr, align 8
  %10 = alloca ptr, align 8
  %11 = alloca i32, align 4
  %12 = alloca i32, align 4
  %13 = alloca ptr, align 8
  %14 = alloca i32, align 4
  %15 = alloca ptr, align 8
  store ptr %0, ptr %8, align 8
  store ptr %1, ptr %9, align 8
  store ptr %2, ptr %10, align 8
  store i32 %3, ptr %11, align 4
  store i32 %4, ptr %12, align 4
  store ptr %5, ptr %13, align 8
  store i32 %6, ptr %14, align 4
  call void @llvm.lifetime.start.p0(i64 8, ptr %15) #5
  %16 = load ptr, ptr %8, align 8
  %17 = load i32, ptr %11, align 4
  %18 = load i32, ptr %12, align 4
  %19 = call ptr @tvb_new_subset_length(ptr noundef %16, i32 noundef %17, i32 noundef %18)
  store ptr %19, ptr %15, align 8
  %20 = load ptr, ptr %15, align 8
  %21 = icmp ne ptr %20, null
  br i1 %21, label %22, label %26

22:                                               ; preds = %7
  %23 = load ptr, ptr %15, align 8
  %24 = load ptr, ptr %10, align 8
  %25 = load ptr, ptr %9, align 8
  call void @dissect_gsm_map_msisdn(ptr noundef %23, ptr noundef %24, ptr noundef %25)
  br label %26

26:                                               ; preds = %22, %7
  %27 = load i32, ptr %12, align 4
  %28 = trunc i32 %27 to i16
  call void @llvm.lifetime.end.p0(i64 8, ptr %15) #5
  ret i16 %28
}