; Function Attrs: null_pointer_is_valid sspstrong uwtable
define internal noundef zeroext i16 @be_msisdn(ptr noundef %0, ptr noundef %1, ptr noundef %2, i32 noundef %3, i32 noundef %4, ptr readnone captures(none) %5, i32 %6) #1 {
  %8 = tail call ptr @tvb_new_subset_length(ptr noundef %0, i32 noundef %3, i32 noundef %4)
  %.not = icmp eq ptr %8, null
  br i1 %.not, label %10, label %9

9:                                                ; preds = %7
  tail call void @dissect_gsm_map_msisdn(ptr noundef nonnull %8, ptr noundef %2, ptr noundef %1)
  br label %10

10:                                               ; preds = %9, %7
  %11 = trunc i32 %4 to i16
  ret i16 %11
}